; Function Attrs: mustprogress uwtable
define internal fastcc noundef signext i16 @_ZN12_GLOBAL__N_123getMinGroupingForLocaleERKN6icu_776LocaleE(ptr %.40.val) unnamed_addr #4 personality ptr @__gxx_personality_v0 {
  %1 = alloca i32, align 4
  %2 = alloca %"class.icu_77::internal::LocalOpenPointer", align 8
  %3 = alloca i32, align 4
  call void @llvm.lifetime.start.p0(i64 4, ptr nonnull %1) #10
  store i32 0, ptr %1, align 4, !tbaa !58
  call void @llvm.lifetime.start.p0(i64 8, ptr nonnull %2) #10
  %4 = call ptr @ures_open_77(ptr noundef null, ptr noundef %.40.val, ptr noundef nonnull %1)
  store ptr %4, ptr %2, align 8, !tbaa !60
  call void @llvm.lifetime.start.p0(i64 4, ptr nonnull %3) #10
  store i32 0, ptr %3, align 4, !tbaa !63
  %5 = invoke ptr @ures_getStringByKeyWithFallback_77(ptr noundef %4, ptr noundef nonnull @.str, ptr noundef nonnull %3, ptr noundef nonnull %1)
          to label %6 unwind label %11

6:                                                ; preds = %0
  %7 = load i32, ptr %1, align 4, !tbaa !58
  %8 = icmp sgt i32 %7, 0
  %9 = load i32, ptr %3, align 4
  %10 = icmp ne i32 %9, 1
  %or.cond = select i1 %8, i1 true, i1 %10
  br i1 %or.cond, label %16, label %13

11:                                               ; preds = %0
  %12 = landingpad { ptr, i32 }
          cleanup
  call void @llvm.lifetime.end.p0(i64 4, ptr nonnull %3) #10
  call void @_ZN6icu_778internal16LocalOpenPointerI15UResourceBundleXadL_Z13ures_close_77EEED2Ev(ptr noundef nonnull align 8 dereferenceable(8) %2) #10
  call void @llvm.lifetime.end.p0(i64 8, ptr nonnull %2) #10
  call void @llvm.lifetime.end.p0(i64 4, ptr nonnull %1) #10
  resume { ptr, i32 } %12

13:                                               ; preds = %6
  %14 = load i16, ptr %5, align 2, !tbaa !64
  %15 = add i16 %14, -48
  br label %16

16:                                               ; preds = %6, %13
  %.0 = phi i16 [ %15, %13 ], [ 1, %6 ]
  call void @llvm.lifetime.end.p0(i64 4, ptr nonnull %3) #10
  %.not.i = icmp eq ptr %4, null
  br i1 %.not.i, label %_ZN6icu_778internal16LocalOpenPointerI15UResourceBundleXadL_Z13ures_close_77EEED2Ev.exit, label %17

17:                                               ; preds = %16
  invoke void @ures_close_77(ptr noundef nonnull %4)
          to label %_ZN6icu_778internal16LocalOpenPointerI15UResourceBundleXadL_Z13ures_close_77EEED2Ev.exit unwind label %18

18:                                               ; preds = %17
  %19 = landingpad { ptr, i32 }
          catch ptr null
  %20 = extractvalue { ptr, i32 } %19, 0
  call void @__clang_call_terminate(ptr %20) #9
  unreachable

_ZN6icu_778internal16LocalOpenPointerI15UResourceBundleXadL_Z13ures_close_77EEED2Ev.exit: ; preds = %16, %17
  call void @llvm.lifetime.end.p0(i64 8, ptr nonnull %2) #10
  call void @llvm.lifetime.end.p0(i64 4, ptr nonnull %1) #10
  ret i16 %.0
}